target datalayout = "e-m:e-p270:32:32-p271:32:32-p272:64:64-i64:64-i128:128-f80:128-n8:16:32:64-S128"
target triple = "x86_64-pc-linux-gnu"

%class.XValueIterator = type <{ ptr, i32, [4 x i8] }>
%class.XValue = type { i64 }

@_ZN23XThreadLocalAllocBuffer6_statsE = hidden global ptr null, align 8
@UseTLAB = external global i8, align 1
@UseDynamicNumberOfGCThreads = external global i8, align 1
@ConcGCThreads = external global i32, align 4
@ParallelGCThreads = external global i32, align 4

; Function Attrs: mustprogress nounwind uwtable
define linkonce_odr hidden noundef i64 @_ZNK6XValueI17XPerWorkerStorage21ThreadLocalAllocStatsE10value_addrEj(ptr noundef nonnull align 8 dereferenceable(8) %0, i32 noundef %1) #1 comdat align 2 {
  %3 = alloca ptr, align 8
  %4 = alloca i32, align 4
  store ptr %0, ptr %3, align 8
  store i32 %1, ptr %4, align 4
  %5 = load ptr, ptr %3, align 8
  %6 = getelementptr inbounds %class.XValue, ptr %5, i32 0, i32 0
  %7 = load i64, ptr %6, align 8
  %8 = load i32, ptr %4, align 4
  %9 = zext i32 %8 to i64
  %10 = mul i64 %9, 4096
  %11 = add i64 %7, %10
  ret i64 %11
}

; Function Attrs: mustprogress nounwind uwtable
define linkonce_odr hidden noundef i32 @_Z4MAX2IjET_S0_S0_(i32 noundef %0, i32 noundef %1) #1 comdat {
  %3 = alloca i32, align 4
  %4 = alloca i32, align 4
  store i32 %0, ptr %3, align 4
  store i32 %1, ptr %4, align 4
  %5 = load i32, ptr %3, align 4
  %6 = load i32, ptr %4, align 4
  %7 = icmp ugt i32 %5, %6
  br i1 %7, label %8, label %10

8:                                                ; preds = %2
  %9 = load i32, ptr %3, align 4
  br label %12

10:                                               ; preds = %2
  %11 = load i32, ptr %4, align 4
  br label %12

12:                                               ; preds = %10, %8
  %13 = phi i32 [ %9, %8 ], [ %11, %10 ]
  ret i32 %13
}

; Function Attrs: mustprogress nounwind uwtable
define linkonce_odr hidden noundef ptr @_ZN6XValueI17XPerWorkerStorage21ThreadLocalAllocStatsE4addrEj(ptr noundef nonnull align 8 dereferenceable(8) %0, i32 noundef %1) #1 comdat align 2 {
  %3 = alloca ptr, align 8
  %4 = alloca i32, align 4
  store ptr %0, ptr %3, align 8
  store i32 %1, ptr %4, align 4
  %5 = load ptr, ptr %3, align 8
  %6 = load i32, ptr %4, align 4
  %7 = call noundef i64 @_ZNK6XValueI17XPerWorkerStorage21ThreadLocalAllocStatsE10value_addrEj(ptr noundef nonnull align 8 dereferenceable(8) %5, i32 noundef %6)
  %8 = inttoptr i64 %7 to ptr
  ret ptr %8
}

; Function Attrs: mustprogress nounwind uwtable
define linkonce_odr hidden noundef i32 @_ZN17XPerWorkerStorage5countEv() #1 comdat align 2 {
  %1 = load i8, ptr @UseDynamicNumberOfGCThreads, align 1
  %2 = trunc i8 %1 to i1
  br i1 %2, label %3, label %5

3:                                                ; preds = %0
  %4 = load i32, ptr @ConcGCThreads, align 4
  br label %9

5:                                                ; preds = %0
  %6 = load i32, ptr @ConcGCThreads, align 4
  %7 = load i32, ptr @ParallelGCThreads, align 4
  %8 = call noundef i32 @_Z4MAX2IjET_S0_S0_(i32 noundef %6, i32 noundef %7)
  br label %9

9:                                                ; preds = %5, %3
  %10 = phi i32 [ %4, %3 ], [ %8, %5 ]
  ret i32 %10
}

; Function Attrs: mustprogress nounwind uwtable
define linkonce_odr hidden noundef zeroext i1 @_ZN14XValueIteratorI17XPerWorkerStorage21ThreadLocalAllocStatsE4nextEPPS1_(ptr noundef nonnull align 8 dereferenceable(12) %0, ptr noundef %1) #1 comdat align 2 {
  %3 = alloca i1, align 1
  %4 = alloca ptr, align 8
  %5 = alloca ptr, align 8
  store ptr %0, ptr %4, align 8
  store ptr %1, ptr %5, align 8
  %6 = load ptr, ptr %4, align 8
  %7 = getelementptr inbounds %class.XValueIterator, ptr %6, i32 0, i32 1
  %8 = load i32, ptr %7, align 8
  %9 = call noundef i32 @_ZN17XPerWorkerStorage5countEv()
  %10 = icmp ult i32 %8, %9
  br i1 %10, label %11, label %19

11:                                               ; preds = %2
  %12 = getelementptr inbounds %class.XValueIterator, ptr %6, i32 0, i32 0
  %13 = load ptr, ptr %12, align 8
  %14 = getelementptr inbounds %class.XValueIterator, ptr %6, i32 0, i32 1
  %15 = load i32, ptr %14, align 8
  %16 = add i32 %15, 1
  store i32 %16, ptr %14, align 8
  %17 = call noundef ptr @_ZN6XValueI17XPerWorkerStorage21ThreadLocalAllocStatsE4addrEj(ptr noundef nonnull align 8 dereferenceable(8) %13, i32 noundef %15)
  %18 = load ptr, ptr %5, align 8
  store ptr %17, ptr %18, align 8
  store i1 true, ptr %3, align 1
  br label %20

19:                                               ; preds = %2
  store i1 false, ptr %3, align 1
  br label %20

20:                                               ; preds = %19, %11
  %21 = load i1, ptr %3, align 1
  ret i1 %21
}

; Function Attrs: mustprogress nounwind uwtable
define linkonce_odr hidden void @_ZN14XValueIteratorI17XPerWorkerStorage21ThreadLocalAllocStatsEC2EP6XValueIS0_S1_E(ptr noundef nonnull align 8 dereferenceable(12) %0, ptr noundef %1) unnamed_addr #1 comdat align 2 {
  %3 = alloca ptr, align 8
  %4 = alloca ptr, align 8
  store ptr %0, ptr %3, align 8
  store ptr %1, ptr %4, align 8
  %5 = load ptr, ptr %3, align 8
  %6 = getelementptr inbounds %class.XValueIterator, ptr %5, i32 0, i32 0
  %7 = load ptr, ptr %4, align 8
  store ptr %7, ptr %6, align 8
  %8 = getelementptr inbounds %class.XValueIterator, ptr %5, i32 0, i32 1
  store i32 0, ptr %8, align 8
  ret void
}

; Function Attrs: mustprogress nounwind uwtable
define hidden void @_ZN23XThreadLocalAllocBuffer16reset_statisticsEv() #1 align 2 {
  %1 = alloca %class.XValueIterator, align 8
  %2 = alloca ptr, align 8
  %3 = load i8, ptr @UseTLAB, align 1
  %4 = trunc i8 %3 to i1
  br i1 %4, label %5, label %12

5:                                                ; preds = %0
  %6 = load ptr, ptr @_ZN23XThreadLocalAllocBuffer6_statsE, align 8
  call void @_ZN14XValueIteratorI17XPerWorkerStorage21ThreadLocalAllocStatsEC2EP6XValueIS0_S1_E(ptr noundef nonnull align 8 dereferenceable(12) %1, ptr noundef %6)
  br label %7

7:                                                ; preds = %9, %5
  %8 = call noundef zeroext i1 @_ZN14XValueIteratorI17XPerWorkerStorage21ThreadLocalAllocStatsE4nextEPPS1_(ptr noundef nonnull align 8 dereferenceable(12) %1, ptr noundef %2)
  br i1 %8, label %9, label %11

9:                                                ; preds = %7
  %10 = load ptr, ptr %2, align 8
  call void @_ZN21ThreadLocalAllocStats5resetEv(ptr noundef nonnull align 8 dereferenceable(64) %10)
  br label %7, !llvm.loop !8

11:                                               ; preds = %7
  br label %12

12:                                               ; preds = %11, %0
  ret void
}