; Function Attrs: mustprogress nounwind uwtable
define hidden void @_ZN23XThreadLocalAllocBuffer16reset_statisticsEv() local_unnamed_addr #0 align 2 {
  %1 = load i8, ptr @UseTLAB, align 1
  %2 = trunc i8 %1 to i1
  br i1 %2, label %3, label %_ZN14XValueIteratorI17XPerWorkerStorage21ThreadLocalAllocStatsE4nextEPPS1_.exit

3:                                                ; preds = %0
  %4 = load ptr, ptr @_ZN23XThreadLocalAllocBuffer6_statsE, align 8
  %5 = load i8, ptr @UseDynamicNumberOfGCThreads, align 1
  %6 = trunc i8 %5 to i1
  %7 = load i32, ptr @ConcGCThreads, align 4
  %8 = load i32, ptr @ParallelGCThreads, align 4
  %9 = tail call i32 @llvm.umax.i32(i32 %7, i32 %8)
  %10 = select i1 %6, i32 %7, i32 %9
  %.not = icmp eq i32 %10, 0
  br i1 %.not, label %_ZN14XValueIteratorI17XPerWorkerStorage21ThreadLocalAllocStatsE4nextEPPS1_.exit, label %.lr.ph

.lr.ph:                                           ; preds = %3, %.lr.ph
  %indvars.iv = phi i64 [ %indvars.iv.next, %.lr.ph ], [ 0, %3 ]
  %indvars.iv.next = add nuw nsw i64 %indvars.iv, 1
  %11 = load i64, ptr %4, align 8
  %12 = shl nuw nsw i64 %indvars.iv, 12
  %13 = add i64 %11, %12
  %14 = inttoptr i64 %13 to ptr
  tail call void @_ZN21ThreadLocalAllocStats5resetEv(ptr noundef nonnull align 8 dereferenceable(64) %14) #6
  %15 = load i8, ptr @UseDynamicNumberOfGCThreads, align 1
  %16 = trunc i8 %15 to i1
  %17 = load i32, ptr @ConcGCThreads, align 4
  %18 = load i32, ptr @ParallelGCThreads, align 4
  %19 = tail call i32 @llvm.umax.i32(i32 %17, i32 %18)
  %20 = select i1 %16, i32 %17, i32 %19
  %21 = zext i32 %20 to i64
  %22 = icmp ult i64 %indvars.iv.next, %21
  br i1 %22, label %.lr.ph, label %_ZN14XValueIteratorI17XPerWorkerStorage21ThreadLocalAllocStatsE4nextEPPS1_.exit, !llvm.loop !8

_ZN14XValueIteratorI17XPerWorkerStorage21ThreadLocalAllocStatsE4nextEPPS1_.exit: ; preds = %.lr.ph, %3, %0
  ret void
}